target datalayout = "e-m:e-p270:32:32-p271:32:32-p272:64:64-i64:64-i128:128-f80:128-n8:16:32:64-S128"
target triple = "x86_64-pc-linux-gnu"

%"class.std::__shared_count" = type { ptr }
%"struct.duckdb::roaring::ContainerMetadataCollection" = type { %"class.duckdb::vector.73", %"class.duckdb::vector.73", %"class.duckdb::vector.73", i64, i64, i64 }
%"class.duckdb::vector.73" = type { %"class.std::vector.74" }
%"class.std::vector.74" = type { %"struct.std::_Vector_base.75" }
%"struct.std::_Vector_base.75" = type { %"struct.std::_Vector_base<unsigned char, std::allocator<unsigned char>>::_Vector_impl" }
%"struct.std::_Vector_base<unsigned char, std::allocator<unsigned char>>::_Vector_impl" = type { %"struct.std::_Vector_base<unsigned char, std::allocator<unsigned char>>::_Vector_impl_data" }
%"struct.std::_Vector_base<unsigned char, std::allocator<unsigned char>>::_Vector_impl_data" = type { ptr, ptr, ptr }
%"class.duckdb::vector.79" = type { %"class.std::vector.80" }
%"class.std::vector.80" = type { %"struct.std::_Vector_base.81" }
%"struct.std::_Vector_base.81" = type { %"struct.std::_Vector_base<duckdb::roaring::ContainerMetadata, std::allocator<duckdb::roaring::ContainerMetadata>>::_Vector_impl" }
%"struct.std::_Vector_base<duckdb::roaring::ContainerMetadata, std::allocator<duckdb::roaring::ContainerMetadata>>::_Vector_impl" = type { %"struct.std::_Vector_base<duckdb::roaring::ContainerMetadata, std::allocator<duckdb::roaring::ContainerMetadata>>::_Vector_impl_data" }
%"struct.std::_Vector_base<duckdb::roaring::ContainerMetadata, std::allocator<duckdb::roaring::ContainerMetadata>>::_Vector_impl_data" = type { ptr, ptr, ptr }
%"class.duckdb::BufferHandle" = type { %"class.duckdb::shared_ptr.120", %"class.duckdb::optional_ptr.124" }
%"class.duckdb::shared_ptr.120" = type { %"class.std::shared_ptr.121" }
%"class.std::shared_ptr.121" = type { %"class.std::__shared_ptr.122" }
%"class.std::__shared_ptr.122" = type { ptr, %"class.std::__shared_count" }
%"class.duckdb::optional_ptr.124" = type { ptr }
%"struct.duckdb::roaring::ContainerScanState" = type { ptr, i64, i64, i64 }
%"struct.duckdb::roaring::RoaringScanState" = type { %"struct.duckdb::SegmentScanState", %"class.duckdb::BufferHandle", ptr, %"class.duckdb::unique_ptr.182", ptr, %"struct.duckdb::roaring::ContainerMetadataCollection", %"class.duckdb::vector.79", %"class.duckdb::vector.191" }
%"struct.duckdb::SegmentScanState" = type { ptr }
%"class.duckdb::unique_ptr.182" = type { %"class.std::unique_ptr.183" }
%"class.std::unique_ptr.183" = type { %"struct.std::__uniq_ptr_data.184" }
%"struct.std::__uniq_ptr_data.184" = type { %"class.std::__uniq_ptr_impl.185" }
%"class.std::__uniq_ptr_impl.185" = type { %"class.std::tuple.186" }
%"class.std::tuple.186" = type { %"struct.std::_Tuple_impl.187" }
%"struct.std::_Tuple_impl.187" = type { %"struct.std::_Head_base.190" }
%"struct.std::_Head_base.190" = type { ptr }
%"class.duckdb::vector.191" = type { %"class.std::vector.192" }
%"class.std::vector.192" = type { %"struct.std::_Vector_base.193" }
%"struct.std::_Vector_base.193" = type { %"struct.std::_Vector_base<unsigned long, std::allocator<unsigned long>>::_Vector_impl" }
%"struct.std::_Vector_base<unsigned long, std::allocator<unsigned long>>::_Vector_impl" = type { %"struct.std::_Vector_base<unsigned long, std::allocator<unsigned long>>::_Vector_impl_data" }
%"struct.std::_Vector_base<unsigned long, std::allocator<unsigned long>>::_Vector_impl_data" = type { ptr, ptr, ptr }

; Function Attrs: mustprogress nounwind uwtable
define linkonce_odr noundef nonnull align 8 dereferenceable(8) ptr @_ZNSt10_Head_baseILm0EPN6duckdb7roaring18ContainerScanStateELb0EE7_M_headERKS4_(ptr noundef nonnull align 8 dereferenceable(8) %0) #2 comdat align 2 {
  %2 = alloca ptr, align 8
  store ptr %0, ptr %2, align 8, !tbaa !785
  %3 = load ptr, ptr %2, align 8, !tbaa !785
  %4 = getelementptr inbounds nuw %"struct.std::_Head_base.190", ptr %3, i32 0, i32 0
  ret ptr %4
}

; Function Attrs: mustprogress nounwind uwtable
define linkonce_odr noundef nonnull align 8 dereferenceable(8) ptr @_ZNSt11_Tuple_implILm0EJPN6duckdb7roaring18ContainerScanStateESt14default_deleteIS2_EEE7_M_headERKS6_(ptr noundef nonnull align 8 dereferenceable(8) %0) #2 comdat align 2 {
  %2 = alloca ptr, align 8
  store ptr %0, ptr %2, align 8, !tbaa !781
  %3 = load ptr, ptr %2, align 8, !tbaa !781
  %4 = call noundef nonnull align 8 dereferenceable(8) ptr @_ZNSt10_Head_baseILm0EPN6duckdb7roaring18ContainerScanStateELb0EE7_M_headERKS4_(ptr noundef nonnull align 8 dereferenceable(8) %3) #19
  ret ptr %4
}

; Function Attrs: mustprogress nounwind uwtable
define linkonce_odr noundef nonnull align 8 dereferenceable(8) ptr @_ZSt12__get_helperILm0EPN6duckdb7roaring18ContainerScanStateEJSt14default_deleteIS2_EEERKT0_RKSt11_Tuple_implIXT_EJS6_DpT1_EE(ptr noundef nonnull align 8 dereferenceable(8) %0) #2 comdat {
  %2 = alloca ptr, align 8
  store ptr %0, ptr %2, align 8, !tbaa !781
  %3 = load ptr, ptr %2, align 8, !tbaa !781
  %4 = call noundef nonnull align 8 dereferenceable(8) ptr @_ZNSt11_Tuple_implILm0EJPN6duckdb7roaring18ContainerScanStateESt14default_deleteIS2_EEE7_M_headERKS6_(ptr noundef nonnull align 8 dereferenceable(8) %3) #19
  ret ptr %4
}

; Function Attrs: mustprogress nounwind uwtable
define linkonce_odr noundef nonnull align 8 dereferenceable(8) ptr @_ZSt3getILm0EJPN6duckdb7roaring18ContainerScanStateESt14default_deleteIS2_EEERKNSt13tuple_elementIXT_ESt5tupleIJDpT0_EEE4typeERKSA_(ptr noundef nonnull align 8 dereferenceable(8) %0) #2 comdat {
  %2 = alloca ptr, align 8
  store ptr %0, ptr %2, align 8, !tbaa !779
  %3 = load ptr, ptr %2, align 8, !tbaa !779
  %4 = call noundef nonnull align 8 dereferenceable(8) ptr @_ZSt12__get_helperILm0EPN6duckdb7roaring18ContainerScanStateEJSt14default_deleteIS2_EEERKT0_RKSt11_Tuple_implIXT_EJS6_DpT1_EE(ptr noundef nonnull align 8 dereferenceable(8) %3) #19
  ret ptr %4
}

; Function Attrs: mustprogress nounwind uwtable
define linkonce_odr noundef ptr @_ZNKSt15__uniq_ptr_implIN6duckdb7roaring18ContainerScanStateESt14default_deleteIS2_EE6_M_ptrEv(ptr noundef nonnull align 8 dereferenceable(8) %0) #2 comdat align 2 {
  %2 = alloca ptr, align 8
  store ptr %0, ptr %2, align 8, !tbaa !777
  %3 = load ptr, ptr %2, align 8
  %4 = getelementptr inbounds nuw %"class.std::__uniq_ptr_impl.185", ptr %3, i32 0, i32 0
  %5 = call noundef nonnull align 8 dereferenceable(8) ptr @_ZSt3getILm0EJPN6duckdb7roaring18ContainerScanStateESt14default_deleteIS2_EEERKNSt13tuple_elementIXT_ESt5tupleIJDpT0_EEE4typeERKSA_(ptr noundef nonnull align 8 dereferenceable(8) %4) #19
  %6 = load ptr, ptr %5, align 8, !tbaa !204
  ret ptr %6
}

; Function Attrs: mustprogress nounwind uwtable
define linkonce_odr noundef ptr @_ZNKSt10unique_ptrIN6duckdb7roaring18ContainerScanStateESt14default_deleteIS2_EE3getEv(ptr noundef nonnull align 8 dereferenceable(8) %0) #2 comdat align 2 {
  %2 = alloca ptr, align 8
  store ptr %0, ptr %2, align 8, !tbaa !495
  %3 = load ptr, ptr %2, align 8
  %4 = getelementptr inbounds nuw %"class.std::unique_ptr.183", ptr %3, i32 0, i32 0
  %5 = call noundef ptr @_ZNKSt15__uniq_ptr_implIN6duckdb7roaring18ContainerScanStateESt14default_deleteIS2_EE6_M_ptrEv(ptr noundef nonnull align 8 dereferenceable(8) %4) #19
  ret ptr %5
}

; Function Attrs: mustprogress nounwind uwtable
define linkonce_odr noundef zeroext i1 @_ZNKSt10unique_ptrIN6duckdb7roaring18ContainerScanStateESt14default_deleteIS2_EEcvbEv(ptr noundef nonnull align 8 dereferenceable(8) %0) #2 comdat align 2 {
  %2 = alloca ptr, align 8
  store ptr %0, ptr %2, align 8, !tbaa !495
  %3 = load ptr, ptr %2, align 8
  %4 = call noundef ptr @_ZNKSt10unique_ptrIN6duckdb7roaring18ContainerScanStateESt14default_deleteIS2_EE3getEv(ptr noundef nonnull align 8 dereferenceable(8) %3) #19
  %5 = icmp eq ptr %4, null
  %6 = select i1 %5, i1 false, i1 true
  ret i1 %6
}

; Function Attrs: mustprogress uwtable
define noundef zeroext i1 @_ZN6duckdb7roaring16RoaringScanState22UseContainerStateCacheEmm(ptr noundef nonnull align 8 dereferenceable(200) %0, i64 noundef %1, i64 noundef %2) #0 align 2 {
  %4 = alloca i1, align 1
  %5 = alloca ptr, align 8
  %6 = alloca i64, align 8
  %7 = alloca i64, align 8
  store ptr %0, ptr %5, align 8, !tbaa !164
  store i64 %1, ptr %6, align 8, !tbaa !8
  store i64 %2, ptr %7, align 8, !tbaa !8
  %8 = load ptr, ptr %5, align 8
  %9 = getelementptr inbounds nuw %"struct.duckdb::roaring::RoaringScanState", ptr %8, i32 0, i32 3
  %10 = call noundef zeroext i1 @_ZNKSt10unique_ptrIN6duckdb7roaring18ContainerScanStateESt14default_deleteIS2_EEcvbEv(ptr noundef nonnull align 8 dereferenceable(8) %9) #19
  br i1 %10, label %12, label %11

11:                                               ; preds = %3
  store i1 false, ptr %4, align 1
  br label %29

12:                                               ; preds = %3
  %13 = getelementptr inbounds nuw %"struct.duckdb::roaring::RoaringScanState", ptr %8, i32 0, i32 3
  %14 = call noundef ptr @_ZNK6duckdb10unique_ptrINS_7roaring18ContainerScanStateESt14default_deleteIS2_ELb1EEptEv(ptr noundef nonnull align 8 dereferenceable(8) %13)
  %15 = getelementptr inbounds nuw %"struct.duckdb::roaring::ContainerScanState", ptr %14, i32 0, i32 1
  %16 = load i64, ptr %15, align 8, !tbaa !455
  %17 = load i64, ptr %6, align 8, !tbaa !8
  %18 = icmp ne i64 %16, %17
  br i1 %18, label %19, label %20

19:                                               ; preds = %12
  store i1 false, ptr %4, align 1
  br label %29

20:                                               ; preds = %12
  %21 = getelementptr inbounds nuw %"struct.duckdb::roaring::RoaringScanState", ptr %8, i32 0, i32 3
  %22 = call noundef ptr @_ZNK6duckdb10unique_ptrINS_7roaring18ContainerScanStateESt14default_deleteIS2_ELb1EEptEv(ptr noundef nonnull align 8 dereferenceable(8) %21)
  %23 = getelementptr inbounds nuw %"struct.duckdb::roaring::ContainerScanState", ptr %22, i32 0, i32 3
  %24 = load i64, ptr %23, align 8, !tbaa !208
  %25 = load i64, ptr %7, align 8, !tbaa !8
  %26 = icmp ne i64 %24, %25
  br i1 %26, label %27, label %28

27:                                               ; preds = %20
  store i1 false, ptr %4, align 1
  br label %29

28:                                               ; preds = %20
  store i1 true, ptr %4, align 1
  br label %29

29:                                               ; preds = %28, %27, %19, %11
  %30 = load i1, ptr %4, align 1
  ret i1 %30
}