; Function Attrs: mustprogress uwtable
define noundef zeroext i1 @_ZN6duckdb7roaring16RoaringScanState22UseContainerStateCacheEmm(ptr noundef nonnull align 8 dereferenceable(200) %0, i64 noundef %1, i64 noundef %2) local_unnamed_addr #0 align 2 {
  %4 = getelementptr inbounds nuw i8, ptr %0, i64 40
  %5 = load ptr, ptr %4, align 8, !tbaa !201
  %.not4 = icmp eq ptr %5, null
  br i1 %.not4, label %14, label %6

6:                                                ; preds = %3
  %7 = tail call noundef ptr @_ZNK6duckdb10unique_ptrINS_7roaring18ContainerScanStateESt14default_deleteIS2_ELb1EEptEv(ptr noundef nonnull align 8 dereferenceable(8) %4)
  %8 = getelementptr inbounds nuw i8, ptr %7, i64 8
  %9 = load i64, ptr %8, align 8, !tbaa !203
  %.not = icmp eq i64 %9, %1
  br i1 %.not, label %10, label %14

10:                                               ; preds = %6
  %11 = tail call noundef ptr @_ZNK6duckdb10unique_ptrINS_7roaring18ContainerScanStateESt14default_deleteIS2_ELb1EEptEv(ptr noundef nonnull align 8 dereferenceable(8) %4)
  %12 = getelementptr inbounds nuw i8, ptr %11, i64 24
  %13 = load i64, ptr %12, align 8, !tbaa !186
  %.not3 = icmp eq i64 %13, %2
  br label %14

14:                                               ; preds = %10, %6, %3
  %.0 = phi i1 [ false, %3 ], [ false, %6 ], [ %.not3, %10 ]
  ret i1 %.0
}